target datalayout = "e-m:e-p270:32:32-p271:32:32-p272:64:64-i64:64-i128:128-f80:128-n8:16:32:64-S128"
target triple = "x86_64-pc-linux-gnu"

%"struct.vcpkg::StringView" = type { ptr, i64 }

@.str.88 = private unnamed_addr constant [5 x i8] c"/a/b\00", align 1
@.str.89 = private unnamed_addr constant [4 x i8] c"c/d\00", align 1
@.str.91 = private unnamed_addr constant [4 x i8] c"a/b\00", align 1
@.str.93 = private unnamed_addr constant [5 x i8] c"/c/d\00", align 1
@.str.94 = private unnamed_addr constant [7 x i8] c"C:/a/b\00", align 1
@.str.96 = private unnamed_addr constant [6 x i8] c"C:a/b\00", align 1
@.str.98 = private unnamed_addr constant [7 x i8] c"D:/c/d\00", align 1
@.str.100 = private unnamed_addr constant [6 x i8] c"D:c/d\00", align 1
@.str.102 = private unnamed_addr constant [6 x i8] c"C:c/d\00", align 1

; Function Attrs: mustprogress nounwind uwtable
define linkonce_odr dso_local void @_ZN5vcpkg10StringViewC2EPKc(ptr noundef nonnull align 8 dereferenceable(16) %0, ptr noundef %1) unnamed_addr #6 comdat align 2 {
  %3 = alloca ptr, align 8
  %4 = alloca ptr, align 8
  store ptr %0, ptr %3, align 8, !tbaa !95
  store ptr %1, ptr %4, align 8, !tbaa !9
  %5 = load ptr, ptr %3, align 8
  %6 = getelementptr inbounds nuw %"struct.vcpkg::StringView", ptr %5, i32 0, i32 0
  %7 = load ptr, ptr %4, align 8, !tbaa !9
  store ptr %7, ptr %6, align 8, !tbaa !97
  %8 = getelementptr inbounds nuw %"struct.vcpkg::StringView", ptr %5, i32 0, i32 1
  %9 = load ptr, ptr %4, align 8, !tbaa !9
  %10 = call i64 @strlen(ptr noundef %9) #21
  store i64 %10, ptr %8, align 8, !tbaa !99
  ret void
}

; Function Attrs: mustprogress uwtable
define internal void @_ZL20C_A_T_C_H_T_E_S_T_10v() #4 {
  %1 = alloca %"struct.vcpkg::StringView", align 8
  %2 = alloca %"struct.vcpkg::StringView", align 8
  %3 = alloca %"struct.vcpkg::StringView", align 8
  %4 = alloca %"struct.vcpkg::StringView", align 8
  %5 = alloca %"struct.vcpkg::StringView", align 8
  %6 = alloca %"struct.vcpkg::StringView", align 8
  %7 = alloca %"struct.vcpkg::StringView", align 8
  %8 = alloca %"struct.vcpkg::StringView", align 8
  %9 = alloca %"struct.vcpkg::StringView", align 8
  %10 = alloca %"struct.vcpkg::StringView", align 8
  %11 = alloca %"struct.vcpkg::StringView", align 8
  %12 = alloca %"struct.vcpkg::StringView", align 8
  %13 = alloca %"struct.vcpkg::StringView", align 8
  %14 = alloca %"struct.vcpkg::StringView", align 8
  %15 = alloca %"struct.vcpkg::StringView", align 8
  %16 = alloca %"struct.vcpkg::StringView", align 8
  %17 = alloca %"struct.vcpkg::StringView", align 8
  %18 = alloca %"struct.vcpkg::StringView", align 8
  %19 = alloca %"struct.vcpkg::StringView", align 8
  %20 = alloca %"struct.vcpkg::StringView", align 8
  call void @_ZN5vcpkg10StringViewC2EPKc(ptr noundef nonnull align 8 dereferenceable(16) %1, ptr noundef @.str.88) #3
  call void @_ZN5vcpkg10StringViewC2EPKc(ptr noundef nonnull align 8 dereferenceable(16) %2, ptr noundef @.str.89) #3
  %21 = getelementptr inbounds nuw { ptr, i64 }, ptr %1, i32 0, i32 0
  %22 = load ptr, ptr %21, align 8
  %23 = getelementptr inbounds nuw { ptr, i64 }, ptr %1, i32 0, i32 1
  %24 = load i64, ptr %23, align 8
  %25 = getelementptr inbounds nuw { ptr, i64 }, ptr %2, i32 0, i32 0
  %26 = load ptr, ptr %25, align 8
  %27 = getelementptr inbounds nuw { ptr, i64 }, ptr %2, i32 0, i32 1
  %28 = load i64, ptr %27, align 8
  call void @_ZL12test_op_plusN5vcpkg10StringViewES0_(ptr %22, i64 %24, ptr %26, i64 %28)
  call void @_ZN5vcpkg10StringViewC2EPKc(ptr noundef nonnull align 8 dereferenceable(16) %3, ptr noundef @.str.91) #3
  call void @_ZN5vcpkg10StringViewC2EPKc(ptr noundef nonnull align 8 dereferenceable(16) %4, ptr noundef @.str.89) #3
  %29 = getelementptr inbounds nuw { ptr, i64 }, ptr %3, i32 0, i32 0
  %30 = load ptr, ptr %29, align 8
  %31 = getelementptr inbounds nuw { ptr, i64 }, ptr %3, i32 0, i32 1
  %32 = load i64, ptr %31, align 8
  %33 = getelementptr inbounds nuw { ptr, i64 }, ptr %4, i32 0, i32 0
  %34 = load ptr, ptr %33, align 8
  %35 = getelementptr inbounds nuw { ptr, i64 }, ptr %4, i32 0, i32 1
  %36 = load i64, ptr %35, align 8
  call void @_ZL12test_op_plusN5vcpkg10StringViewES0_(ptr %30, i64 %32, ptr %34, i64 %36)
  call void @_ZN5vcpkg10StringViewC2EPKc(ptr noundef nonnull align 8 dereferenceable(16) %5, ptr noundef @.str.88) #3
  call void @_ZN5vcpkg10StringViewC2EPKc(ptr noundef nonnull align 8 dereferenceable(16) %6, ptr noundef @.str.93) #3
  %37 = getelementptr inbounds nuw { ptr, i64 }, ptr %5, i32 0, i32 0
  %38 = load ptr, ptr %37, align 8
  %39 = getelementptr inbounds nuw { ptr, i64 }, ptr %5, i32 0, i32 1
  %40 = load i64, ptr %39, align 8
  %41 = getelementptr inbounds nuw { ptr, i64 }, ptr %6, i32 0, i32 0
  %42 = load ptr, ptr %41, align 8
  %43 = getelementptr inbounds nuw { ptr, i64 }, ptr %6, i32 0, i32 1
  %44 = load i64, ptr %43, align 8
  call void @_ZL12test_op_plusN5vcpkg10StringViewES0_(ptr %38, i64 %40, ptr %42, i64 %44)
  call void @_ZN5vcpkg10StringViewC2EPKc(ptr noundef nonnull align 8 dereferenceable(16) %7, ptr noundef @.str.94) #3
  call void @_ZN5vcpkg10StringViewC2EPKc(ptr noundef nonnull align 8 dereferenceable(16) %8, ptr noundef @.str.89) #3
  %45 = getelementptr inbounds nuw { ptr, i64 }, ptr %7, i32 0, i32 0
  %46 = load ptr, ptr %45, align 8
  %47 = getelementptr inbounds nuw { ptr, i64 }, ptr %7, i32 0, i32 1
  %48 = load i64, ptr %47, align 8
  %49 = getelementptr inbounds nuw { ptr, i64 }, ptr %8, i32 0, i32 0
  %50 = load ptr, ptr %49, align 8
  %51 = getelementptr inbounds nuw { ptr, i64 }, ptr %8, i32 0, i32 1
  %52 = load i64, ptr %51, align 8
  call void @_ZL12test_op_plusN5vcpkg10StringViewES0_(ptr %46, i64 %48, ptr %50, i64 %52)
  call void @_ZN5vcpkg10StringViewC2EPKc(ptr noundef nonnull align 8 dereferenceable(16) %9, ptr noundef @.str.96) #3
  call void @_ZN5vcpkg10StringViewC2EPKc(ptr noundef nonnull align 8 dereferenceable(16) %10, ptr noundef @.str.89) #3
  %53 = getelementptr inbounds nuw { ptr, i64 }, ptr %9, i32 0, i32 0
  %54 = load ptr, ptr %53, align 8
  %55 = getelementptr inbounds nuw { ptr, i64 }, ptr %9, i32 0, i32 1
  %56 = load i64, ptr %55, align 8
  %57 = getelementptr inbounds nuw { ptr, i64 }, ptr %10, i32 0, i32 0
  %58 = load ptr, ptr %57, align 8
  %59 = getelementptr inbounds nuw { ptr, i64 }, ptr %10, i32 0, i32 1
  %60 = load i64, ptr %59, align 8
  call void @_ZL12test_op_plusN5vcpkg10StringViewES0_(ptr %54, i64 %56, ptr %58, i64 %60)
  call void @_ZN5vcpkg10StringViewC2EPKc(ptr noundef nonnull align 8 dereferenceable(16) %11, ptr noundef @.str.96) #3
  call void @_ZN5vcpkg10StringViewC2EPKc(ptr noundef nonnull align 8 dereferenceable(16) %12, ptr noundef @.str.93) #3
  %61 = getelementptr inbounds nuw { ptr, i64 }, ptr %11, i32 0, i32 0
  %62 = load ptr, ptr %61, align 8
  %63 = getelementptr inbounds nuw { ptr, i64 }, ptr %11, i32 0, i32 1
  %64 = load i64, ptr %63, align 8
  %65 = getelementptr inbounds nuw { ptr, i64 }, ptr %12, i32 0, i32 0
  %66 = load ptr, ptr %65, align 8
  %67 = getelementptr inbounds nuw { ptr, i64 }, ptr %12, i32 0, i32 1
  %68 = load i64, ptr %67, align 8
  call void @_ZL12test_op_plusN5vcpkg10StringViewES0_(ptr %62, i64 %64, ptr %66, i64 %68)
  call void @_ZN5vcpkg10StringViewC2EPKc(ptr noundef nonnull align 8 dereferenceable(16) %13, ptr noundef @.str.94) #3
  call void @_ZN5vcpkg10StringViewC2EPKc(ptr noundef nonnull align 8 dereferenceable(16) %14, ptr noundef @.str.93) #3
  %69 = getelementptr inbounds nuw { ptr, i64 }, ptr %13, i32 0, i32 0
  %70 = load ptr, ptr %69, align 8
  %71 = getelementptr inbounds nuw { ptr, i64 }, ptr %13, i32 0, i32 1
  %72 = load i64, ptr %71, align 8
  %73 = getelementptr inbounds nuw { ptr, i64 }, ptr %14, i32 0, i32 0
  %74 = load ptr, ptr %73, align 8
  %75 = getelementptr inbounds nuw { ptr, i64 }, ptr %14, i32 0, i32 1
  %76 = load i64, ptr %75, align 8
  call void @_ZL12test_op_plusN5vcpkg10StringViewES0_(ptr %70, i64 %72, ptr %74, i64 %76)
  call void @_ZN5vcpkg10StringViewC2EPKc(ptr noundef nonnull align 8 dereferenceable(16) %15, ptr noundef @.str.94) #3
  call void @_ZN5vcpkg10StringViewC2EPKc(ptr noundef nonnull align 8 dereferenceable(16) %16, ptr noundef @.str.98) #3
  %77 = getelementptr inbounds nuw { ptr, i64 }, ptr %15, i32 0, i32 0
  %78 = load ptr, ptr %77, align 8
  %79 = getelementptr inbounds nuw { ptr, i64 }, ptr %15, i32 0, i32 1
  %80 = load i64, ptr %79, align 8
  %81 = getelementptr inbounds nuw { ptr, i64 }, ptr %16, i32 0, i32 0
  %82 = load ptr, ptr %81, align 8
  %83 = getelementptr inbounds nuw { ptr, i64 }, ptr %16, i32 0, i32 1
  %84 = load i64, ptr %83, align 8
  call void @_ZL12test_op_plusN5vcpkg10StringViewES0_(ptr %78, i64 %80, ptr %82, i64 %84)
  call void @_ZN5vcpkg10StringViewC2EPKc(ptr noundef nonnull align 8 dereferenceable(16) %17, ptr noundef @.str.94) #3
  call void @_ZN5vcpkg10StringViewC2EPKc(ptr noundef nonnull align 8 dereferenceable(16) %18, ptr noundef @.str.100) #3
  %85 = getelementptr inbounds nuw { ptr, i64 }, ptr %17, i32 0, i32 0
  %86 = load ptr, ptr %85, align 8
  %87 = getelementptr inbounds nuw { ptr, i64 }, ptr %17, i32 0, i32 1
  %88 = load i64, ptr %87, align 8
  %89 = getelementptr inbounds nuw { ptr, i64 }, ptr %18, i32 0, i32 0
  %90 = load ptr, ptr %89, align 8
  %91 = getelementptr inbounds nuw { ptr, i64 }, ptr %18, i32 0, i32 1
  %92 = load i64, ptr %91, align 8
  call void @_ZL12test_op_plusN5vcpkg10StringViewES0_(ptr %86, i64 %88, ptr %90, i64 %92)
  call void @_ZN5vcpkg10StringViewC2EPKc(ptr noundef nonnull align 8 dereferenceable(16) %19, ptr noundef @.str.94) #3
  call void @_ZN5vcpkg10StringViewC2EPKc(ptr noundef nonnull align 8 dereferenceable(16) %20, ptr noundef @.str.102) #3
  %93 = getelementptr inbounds nuw { ptr, i64 }, ptr %19, i32 0, i32 0
  %94 = load ptr, ptr %93, align 8
  %95 = getelementptr inbounds nuw { ptr, i64 }, ptr %19, i32 0, i32 1
  %96 = load i64, ptr %95, align 8
  %97 = getelementptr inbounds nuw { ptr, i64 }, ptr %20, i32 0, i32 0
  %98 = load ptr, ptr %97, align 8
  %99 = getelementptr inbounds nuw { ptr, i64 }, ptr %20, i32 0, i32 1
  %100 = load i64, ptr %99, align 8
  call void @_ZL12test_op_plusN5vcpkg10StringViewES0_(ptr %94, i64 %96, ptr %98, i64 %100)
  ret void
}