; Function Attrs: mustprogress uwtable
define internal void @_ZL20C_A_T_C_H_T_E_S_T_10v() #3 {
  tail call fastcc void @_ZL12test_op_plusN5vcpkg10StringViewES0_(ptr nonnull @.str.88, i64 4, ptr nonnull @.str.89, i64 3)
  tail call fastcc void @_ZL12test_op_plusN5vcpkg10StringViewES0_(ptr nonnull @.str.91, i64 3, ptr nonnull @.str.89, i64 3)
  tail call fastcc void @_ZL12test_op_plusN5vcpkg10StringViewES0_(ptr nonnull @.str.88, i64 4, ptr nonnull @.str.93, i64 4)
  tail call fastcc void @_ZL12test_op_plusN5vcpkg10StringViewES0_(ptr nonnull @.str.94, i64 6, ptr nonnull @.str.89, i64 3)
  tail call fastcc void @_ZL12test_op_plusN5vcpkg10StringViewES0_(ptr nonnull @.str.96, i64 5, ptr nonnull @.str.89, i64 3)
  tail call fastcc void @_ZL12test_op_plusN5vcpkg10StringViewES0_(ptr nonnull @.str.96, i64 5, ptr nonnull @.str.93, i64 4)
  tail call fastcc void @_ZL12test_op_plusN5vcpkg10StringViewES0_(ptr nonnull @.str.94, i64 6, ptr nonnull @.str.93, i64 4)
  tail call fastcc void @_ZL12test_op_plusN5vcpkg10StringViewES0_(ptr nonnull @.str.94, i64 6, ptr nonnull @.str.98, i64 6)
  tail call fastcc void @_ZL12test_op_plusN5vcpkg10StringViewES0_(ptr nonnull @.str.94, i64 6, ptr nonnull @.str.100, i64 5)
  tail call fastcc void @_ZL12test_op_plusN5vcpkg10StringViewES0_(ptr nonnull @.str.94, i64 6, ptr nonnull @.str.102, i64 5)
  ret void
}